target datalayout = "e-m:e-p270:32:32-p271:32:32-p272:64:64-i64:64-i128:128-f80:128-n8:16:32:64-S128"
target triple = "x86_64-pc-linux-gnu"

%struct.opj_tcd_marker_info = type { i32, i32, ptr }

; Function Attrs: nounwind uwtable
define hidden void @opj_tcd_marker_info_destroy(ptr noundef %0) #0 {
  %2 = alloca ptr, align 8
  store ptr %0, ptr %2, align 8, !tbaa !184
  %3 = load ptr, ptr %2, align 8, !tbaa !184
  %4 = icmp ne ptr %3, null
  br i1 %4, label %5, label %10

5:                                                ; preds = %1
  %6 = load ptr, ptr %2, align 8, !tbaa !184
  %7 = getelementptr inbounds nuw %struct.opj_tcd_marker_info, ptr %6, i32 0, i32 2
  %8 = load ptr, ptr %7, align 8, !tbaa !268
  call void @opj_free(ptr noundef %8)
  %9 = load ptr, ptr %2, align 8, !tbaa !184
  call void @opj_free(ptr noundef %9)
  br label %10

10:                                               ; preds = %5, %1
  ret void
}